(dp0
ccopy_reg
_reconstructor
p1
(cautonose.shared.file_stamp
FileStamp
p2
c__builtin__
object
p3
Ntp4
Rp5
(dp6
S'modtime'
p7
F1286151298.861093
sS'path'
p8
S'ast/assignment.py'
p9
sS'_info'
p10
g1
(cautonose.shared.test_result
TestResultSet
p11
g3
Ntp12
Rp13
(dp14
S'results'
p15
(lp16
sbsb(lp17
g1
(g2
g3
Ntp18
Rp19
(dp20
g7
F1286150746.2972691
sg8
S'ast/node.py'
p21
sg10
g1
(g11
g3
Ntp22
Rp23
(dp24
g15
(lp25
sbsbasg1
(g2
g3
Ntp26
Rp27
(dp28
S'modtime'
p29
F1286151283.6372688
sS'path'
p30
S'dsl_engine.py'
p31
sS'_info'
p32
g1
(g11
g3
Ntp33
Rp34
(dp35
S'results'
p36
(lp37
sbsb(lp38
sg1
(g2
g3
Ntp39
Rp40
(dp41
g29
F1286150557.4490783
sg30
S'test_dsl_engine.py'
p42
sg32
g1
(g11
g3
Ntp43
Rp44
(dp45
g36
(lp46
sbsb(lp47
g1
(g2
g3
Ntp48
Rp49
(dp50
g29
F1286122143.7735281
sg30
S'dsl_engine.py'
p51
sg32
g1
(g11
g3
Ntp52
Rp53
(dp54
g36
(lp55
sbsbasg1
(g2
g3
Ntp56
Rp57
(dp58
S'modtime'
p59
F1286151322.4692707
sS'path'
p60
S'run_pyparse.py'
p61
sS'_info'
p62
g1
(g11
g3
Ntp63
Rp64
(dp65
S'results'
p66
(lp67
sbsb(lp68
g1
(g2
g3
Ntp69
Rp70
(dp71
g59
F1286148443.36111
sg60
S'dsl_engine.py'
p72
sg62
g1
(g11
g3
Ntp73
Rp74
(dp75
g66
(lp76
sbsbasg1
(g2
g3
Ntp77
Rp78
(dp79
S'modtime'
p80
F1286151816.238277
sS'path'
p81
S'tag_context.py'
p82
sS'_info'
p83
g1
(g11
g3
Ntp84
Rp85
(dp86
S'results'
p87
(lp88
sbsb(lp89
sg1
(g2
g3
Ntp90
Rp91
(dp92
g80
F1286151195.6740799
sg81
S'__init__.py'
p93
sg83
g1
(g11
g3
Ntp94
Rp95
(dp96
g87
(lp97
sbsb(lp98
sg1
(g2
g3
Ntp99
Rp100
(dp101
g80
F1286151240.3970785
sg81
S'ast/__init__.py'
p102
sg83
g1
(g11
g3
Ntp103
Rp104
(dp105
g87
(lp106
sbsb(lp107
sg1
(g2
g3
Ntp108
Rp109
(dp110
g7
F1286151157.0812306
sg8
S'ast/literal_value.py'
p111
sg10
g1
(g11
g3
Ntp112
Rp113
(dp114
g15
(lp115
sbsb(lp116
g1
(g2
g3
Ntp117
Rp118
(dp119
g7
F1286150746.2972691
sg8
S'ast/node.py'
p120
sg10
g1
(g11
g3
Ntp121
Rp122
(dp123
g15
(lp124
sbsbasg1
(g2
g3
Ntp125
Rp126
(dp127
g7
F1286151307.7573013
sg8
S'ast/arith.py'
p128
sg10
g1
(g11
g3
Ntp129
Rp130
(dp131
g15
(lp132
sbsb(lp133
g1
(g2
g3
Ntp134
Rp135
(dp136
g7
F1286150746.2972691
sg8
S'ast/node.py'
p137
sg10
g1
(g11
g3
Ntp138
Rp139
(dp140
g15
(lp141
sbsbasg1
(g2
g3
Ntp142
Rp143
(dp144
g7
F1286151117.2732639
sg8
S'ast/ast_node.py'
p145
sg10
g1
(g11
g3
Ntp146
Rp147
(dp148
g15
(lp149
sbsb(lp150
sg1
(g2
g3
Ntp151
Rp152
(dp153
g7
F1286151157.1332304
sg8
S'ast/tag_reference.py'
p154
sg10
g1
(g11
g3
Ntp155
Rp156
(dp157
g15
(lp158
sbsb(lp159
g1
(g2
g3
Ntp160
Rp161
(dp162
g7
F1286150746.2972691
sg8
S'ast/node.py'
p163
sg10
g1
(g11
g3
Ntp164
Rp165
(dp166
g15
(lp167
sbsbasg1
(g2
g3
Ntp168
Rp169
(dp170
g29
F1286151764.9853055
sg30
S'retag.py'
p171
sg32
g1
(g11
g3
Ntp172
Rp173
(dp174
g36
(lp175
sbsb(lp176
s.